; Function Attrs: mustprogress uwtable
define void @_ZN18OpenImageIO_v2_6_010ImageInput6createERKNSt7__cxx1112basic_stringIcSt11char_traitsIcESaIcEEES8_(ptr noalias nocapture writeonly sret(%"class.std::unique_ptr") align 8 %agg.result, ptr noundef nonnull align 8 dereferenceable(32) %filename, ptr noundef nonnull align 8 dereferenceable(32) %plugin_searchpath) local_unnamed_addr #5 align 2 {
entry:
  %agg.tmp.i = alloca %"class.OpenImageIO_v2_6_0::basic_string_view", align 8
  %agg.tmp1.i = alloca %"class.OpenImageIO_v2_6_0::basic_string_view", align 8
  %call.i = tail call noundef ptr @_ZNKSt7__cxx1112basic_stringIcSt11char_traitsIcESaIcEE4dataEv(ptr noundef nonnull align 8 dereferenceable(32) %plugin_searchpath) #23
  %call2.i = tail call noundef i64 @_ZNKSt7__cxx1112basic_stringIcSt11char_traitsIcESaIcEE4sizeEv(ptr noundef nonnull align 8 dereferenceable(32) %plugin_searchpath) #23
  call void @llvm.lifetime.start.p0(i64 16, ptr nonnull %agg.tmp.i)
  call void @llvm.lifetime.start.p0(i64 16, ptr nonnull %agg.tmp1.i)
  %call.i.i = tail call noundef ptr @_ZNKSt7__cxx1112basic_stringIcSt11char_traitsIcESaIcEE4dataEv(ptr noundef nonnull align 8 dereferenceable(32) %filename) #23, !noalias !53
  store ptr %call.i.i, ptr %agg.tmp.i, align 8, !noalias !53
  %m_len.i.i = getelementptr inbounds i8, ptr %agg.tmp.i, i64 8
  %call2.i.i = tail call noundef i64 @_ZNKSt7__cxx1112basic_stringIcSt11char_traitsIcESaIcEE4sizeEv(ptr noundef nonnull align 8 dereferenceable(32) %filename) #23, !noalias !53
  store i64 %call2.i.i, ptr %m_len.i.i, align 8, !noalias !53
  store ptr %call.i, ptr %agg.tmp1.i, align 8, !noalias !53
  %m_len.i1.i = getelementptr inbounds i8, ptr %agg.tmp1.i, i64 8
  store i64 %call2.i, ptr %m_len.i1.i, align 8, !noalias !53
  call void @_ZN18OpenImageIO_v2_6_010ImageInput6createENS_17basic_string_viewIcSt11char_traitsIcEEEbPKNS_9ImageSpecEPNS_10Filesystem7IOProxyES4_(ptr sret(%"class.std::unique_ptr") align 8 %agg.result, ptr noundef nonnull %agg.tmp.i, i1 noundef zeroext false, ptr noundef null, ptr noundef null, ptr noundef nonnull %agg.tmp1.i)
  call void @llvm.lifetime.end.p0(i64 16, ptr nonnull %agg.tmp.i)
  call void @llvm.lifetime.end.p0(i64 16, ptr nonnull %agg.tmp1.i)
  ret void
}